; Function Attrs: mustprogress nounwind uwtable
define hidden void @_ZN12Dependencies9DepStream21trace_and_log_witnessEP5Klass(ptr nocapture noundef nonnull readonly align 8 dereferenceable(56) %0, ptr noundef %1) local_unnamed_addr #0 align 2 {
  %3 = alloca %class.LogStream, align 8
  %4 = load i8, ptr @_ZN12Dependencies19_verify_in_progressE, align 1
  %5 = trunc i8 %4 to i1
  %6 = icmp eq ptr %1, null
  %or.cond.not = or i1 %6, %5
  br i1 %or.cond.not, label %13, label %7

7:                                                ; preds = %2
  %8 = load volatile ptr, ptr getelementptr inbounds (i8, ptr @_ZN16LogTagSetMappingILN6LogTag4typeE36ELS1_0ELS1_0ELS1_0ELS1_0ELS1_0EE7_tagsetE, i64 56), align 8
  %.not = icmp eq ptr %8, null
  br i1 %.not, label %12, label %9

9:                                                ; preds = %7
  call void @_ZN12outputStreamC2Eb(ptr noundef nonnull align 8 dereferenceable(56) %3, i1 noundef zeroext false) #18
  store ptr getelementptr inbounds inrange(-16, 40) (i8, ptr @_ZTV17LogStreamImplBase, i64 16), ptr %3, align 8
  %10 = getelementptr inbounds i8, ptr %3, i64 56
  call void @_ZN17LogStreamImplBase10LineBufferC1Ev(ptr noundef nonnull align 8 dereferenceable(88) %10) #18
  %11 = getelementptr inbounds i8, ptr %3, i64 144
  store i32 2, ptr %11, align 8
  %.sroa.21.0..sroa_idx.i.i = getelementptr inbounds i8, ptr %3, i64 152
  store ptr @_ZN16LogTagSetMappingILN6LogTag4typeE36ELS1_0ELS1_0ELS1_0ELS1_0ELS1_0EE7_tagsetE, ptr %.sroa.21.0..sroa_idx.i.i, align 8
  store ptr getelementptr inbounds inrange(-16, 40) (i8, ptr @_ZTV9LogStream, i64 16), ptr %3, align 8
  call void @_ZN12Dependencies9DepStream16print_dependencyEP12outputStreamP5Klassb(ptr noundef nonnull align 8 dereferenceable(56) %0, ptr noundef nonnull %3, ptr noundef nonnull %1, i1 noundef zeroext true)
  call void @_ZN13LogStreamImplI15LogTargetHandleED2Ev(ptr noundef nonnull align 8 dereferenceable(160) %3) #18
  br label %12

12:                                               ; preds = %9, %7
  call void @_ZN12Dependencies9DepStream14log_dependencyEP5Klass(ptr noundef nonnull align 8 dereferenceable(56) %0, ptr noundef nonnull %1)
  br label %13

13:                                               ; preds = %2, %12
  ret void
}